target datalayout = "e-m:e-p270:32:32-p271:32:32-p272:64:64-i64:64-i128:128-f80:128-n8:16:32:64-S128"
target triple = "x86_64-pc-linux-gnu"

%"struct.arrow::ArraySpan" = type { ptr, i64, i64, i64, [3 x %"struct.arrow::BufferSpan"], %"class.std::vector.34" }
%"struct.arrow::BufferSpan" = type { ptr, i64, ptr }
%"class.std::vector.34" = type { %"struct.std::_Vector_base.35" }
%"struct.std::_Vector_base.35" = type { %"struct.std::_Vector_base<arrow::ArraySpan, std::allocator<arrow::ArraySpan>>::_Vector_impl" }
%"struct.std::_Vector_base<arrow::ArraySpan, std::allocator<arrow::ArraySpan>>::_Vector_impl" = type { %"struct.std::_Vector_base<arrow::ArraySpan, std::allocator<arrow::ArraySpan>>::_Vector_impl_data" }
%"struct.std::_Vector_base<arrow::ArraySpan, std::allocator<arrow::ArraySpan>>::_Vector_impl_data" = type { ptr, ptr, ptr }

; Function Attrs: mustprogress nounwind uwtable
define linkonce_odr noundef nonnull align 8 dereferenceable(128) ptr @_ZNKSt6vectorIN5arrow9ArraySpanESaIS1_EEixEm(ptr noundef nonnull align 8 dereferenceable(24) %0, i64 noundef %1) #3 comdat align 2 {
  %3 = alloca ptr, align 8
  %4 = alloca i64, align 8
  store ptr %0, ptr %3, align 8, !tbaa !190
  store i64 %1, ptr %4, align 8, !tbaa !8
  %5 = load ptr, ptr %3, align 8
  %6 = getelementptr inbounds nuw %"struct.std::_Vector_base.35", ptr %5, i32 0, i32 0
  %7 = getelementptr inbounds nuw %"struct.std::_Vector_base<arrow::ArraySpan, std::allocator<arrow::ArraySpan>>::_Vector_impl_data", ptr %6, i32 0, i32 0
  %8 = load ptr, ptr %7, align 8, !tbaa !192
  %9 = load i64, ptr %4, align 8, !tbaa !8
  %10 = getelementptr inbounds nuw %"struct.arrow::ArraySpan", ptr %8, i64 %9
  ret ptr %10
}

; Function Attrs: mustprogress nounwind uwtable
define linkonce_odr noundef nonnull align 8 dereferenceable(128) ptr @_ZNK5arrow9ArraySpan10dictionaryEv(ptr noundef nonnull align 8 dereferenceable(128) %0) #3 comdat align 2 {
  %2 = alloca ptr, align 8
  store ptr %0, ptr %2, align 8, !tbaa !81
  %3 = load ptr, ptr %2, align 8
  %4 = getelementptr inbounds nuw %"struct.arrow::ArraySpan", ptr %3, i32 0, i32 5
  %5 = call noundef nonnull align 8 dereferenceable(128) ptr @_ZNKSt6vectorIN5arrow9ArraySpanESaIS1_EEixEm(ptr noundef nonnull align 8 dereferenceable(24) %4, i64 noundef 0) #20
  ret ptr %5
}

; Function Attrs: mustprogress uwtable
define noundef i64 @_ZNK5arrow9ArraySpan12GetNullCountEv(ptr noundef nonnull align 8 dereferenceable(128) %0) #0 align 2 {
  %2 = alloca ptr, align 8
  %3 = alloca i64, align 8
  store ptr %0, ptr %2, align 8, !tbaa !81
  %4 = load ptr, ptr %2, align 8
  call void @llvm.lifetime.start.p0(i64 8, ptr %3) #20
  %5 = getelementptr inbounds nuw %"struct.arrow::ArraySpan", ptr %4, i32 0, i32 2
  %6 = load i64, ptr %5, align 8, !tbaa !90
  store i64 %6, ptr %3, align 8, !tbaa !8
  %7 = load i64, ptr %3, align 8, !tbaa !8
  %8 = icmp eq i64 %7, -1
  %9 = xor i1 %8, true
  %10 = xor i1 %9, true
  %11 = zext i1 %10 to i64
  %12 = call i64 @llvm.expect.i64(i64 %11, i64 0)
  %13 = icmp ne i64 %12, 0
  br i1 %13, label %14, label %37

14:                                               ; preds = %1
  %15 = getelementptr inbounds nuw %"struct.arrow::ArraySpan", ptr %4, i32 0, i32 4
  %16 = getelementptr inbounds [3 x %"struct.arrow::BufferSpan"], ptr %15, i64 0, i64 0
  %17 = getelementptr inbounds nuw %"struct.arrow::BufferSpan", ptr %16, i32 0, i32 0
  %18 = load ptr, ptr %17, align 8, !tbaa !92
  %19 = icmp ne ptr %18, null
  br i1 %19, label %20, label %33

20:                                               ; preds = %14
  %21 = getelementptr inbounds nuw %"struct.arrow::ArraySpan", ptr %4, i32 0, i32 1
  %22 = load i64, ptr %21, align 8, !tbaa !89
  %23 = getelementptr inbounds nuw %"struct.arrow::ArraySpan", ptr %4, i32 0, i32 4
  %24 = getelementptr inbounds [3 x %"struct.arrow::BufferSpan"], ptr %23, i64 0, i64 0
  %25 = getelementptr inbounds nuw %"struct.arrow::BufferSpan", ptr %24, i32 0, i32 0
  %26 = load ptr, ptr %25, align 8, !tbaa !92
  %27 = getelementptr inbounds nuw %"struct.arrow::ArraySpan", ptr %4, i32 0, i32 3
  %28 = load i64, ptr %27, align 8, !tbaa !91
  %29 = getelementptr inbounds nuw %"struct.arrow::ArraySpan", ptr %4, i32 0, i32 1
  %30 = load i64, ptr %29, align 8, !tbaa !89
  %31 = call noundef i64 @_ZN5arrow8internal12CountSetBitsEPKhll(ptr noundef %26, i64 noundef %28, i64 noundef %30)
  %32 = sub nsw i64 %22, %31
  store i64 %32, ptr %3, align 8, !tbaa !8
  br label %34

33:                                               ; preds = %14
  store i64 0, ptr %3, align 8, !tbaa !8
  br label %34

34:                                               ; preds = %33, %20
  %35 = load i64, ptr %3, align 8, !tbaa !8
  %36 = getelementptr inbounds nuw %"struct.arrow::ArraySpan", ptr %4, i32 0, i32 2
  store i64 %35, ptr %36, align 8, !tbaa !90
  br label %37

37:                                               ; preds = %34, %1
  %38 = load i64, ptr %3, align 8, !tbaa !8
  call void @llvm.lifetime.end.p0(i64 8, ptr %3) #20
  ret i64 %38
}

; Function Attrs: mustprogress uwtable
define noundef zeroext i1 @_ZNK5arrow9ArraySpan29DictionaryMayHaveLogicalNullsEv(ptr noundef nonnull align 8 dereferenceable(128) %0) #0 align 2 {
  %2 = alloca ptr, align 8
  store ptr %0, ptr %2, align 8, !tbaa !81
  %3 = load ptr, ptr %2, align 8
  %4 = call noundef i64 @_ZNK5arrow9ArraySpan12GetNullCountEv(ptr noundef nonnull align 8 dereferenceable(128) %3)
  %5 = icmp ne i64 %4, 0
  br i1 %5, label %10, label %6

6:                                                ; preds = %1
  %7 = call noundef nonnull align 8 dereferenceable(128) ptr @_ZNK5arrow9ArraySpan10dictionaryEv(ptr noundef nonnull align 8 dereferenceable(128) %3)
  %8 = call noundef i64 @_ZNK5arrow9ArraySpan12GetNullCountEv(ptr noundef nonnull align 8 dereferenceable(128) %7)
  %9 = icmp ne i64 %8, 0
  br label %10

10:                                               ; preds = %6, %1
  %11 = phi i1 [ true, %1 ], [ %9, %6 ]
  ret i1 %11
}