; Function Attrs: mustprogress uwtable
define noundef zeroext i1 @_ZNK5arrow9ArraySpan29DictionaryMayHaveLogicalNullsEv(ptr noundef nonnull align 8 captures(none) dereferenceable(128) %0) local_unnamed_addr #0 align 2 {
  %2 = getelementptr inbounds nuw i8, ptr %0, i64 16
  %3 = load i64, ptr %2, align 8, !tbaa !57
  %4 = icmp eq i64 %3, -1
  br i1 %4, label %5, label %_ZNK5arrow9ArraySpan12GetNullCountEv.exit, !prof !89

5:                                                ; preds = %1
  %6 = getelementptr inbounds nuw i8, ptr %0, i64 32
  %7 = load ptr, ptr %6, align 8, !tbaa !68
  %.not.i = icmp eq ptr %7, null
  br i1 %.not.i, label %15, label %8

8:                                                ; preds = %5
  %9 = getelementptr inbounds nuw i8, ptr %0, i64 8
  %10 = load i64, ptr %9, align 8, !tbaa !90
  %11 = getelementptr inbounds nuw i8, ptr %0, i64 24
  %12 = load i64, ptr %11, align 8, !tbaa !65
  %13 = tail call noundef i64 @_ZN5arrow8internal12CountSetBitsEPKhll(ptr noundef nonnull %7, i64 noundef %12, i64 noundef %10)
  %14 = sub nsw i64 %10, %13
  br label %15

15:                                               ; preds = %8, %5
  %.1.i = phi i64 [ %14, %8 ], [ 0, %5 ]
  store i64 %.1.i, ptr %2, align 8, !tbaa !57
  br label %_ZNK5arrow9ArraySpan12GetNullCountEv.exit

_ZNK5arrow9ArraySpan12GetNullCountEv.exit:        ; preds = %1, %15
  %.0.i = phi i64 [ %.1.i, %15 ], [ %3, %1 ]
  %.not = icmp eq i64 %.0.i, 0
  br i1 %.not, label %16, label %34

16:                                               ; preds = %_ZNK5arrow9ArraySpan12GetNullCountEv.exit
  %17 = getelementptr inbounds nuw i8, ptr %0, i64 104
  %18 = load ptr, ptr %17, align 8, !tbaa !64
  %19 = getelementptr inbounds nuw i8, ptr %18, i64 16
  %20 = load i64, ptr %19, align 8, !tbaa !57
  %21 = icmp eq i64 %20, -1
  br i1 %21, label %22, label %_ZNK5arrow9ArraySpan12GetNullCountEv.exit4, !prof !89

22:                                               ; preds = %16
  %23 = getelementptr inbounds nuw i8, ptr %18, i64 32
  %24 = load ptr, ptr %23, align 8, !tbaa !68
  %.not.i2 = icmp eq ptr %24, null
  br i1 %.not.i2, label %32, label %25

25:                                               ; preds = %22
  %26 = getelementptr inbounds nuw i8, ptr %18, i64 8
  %27 = load i64, ptr %26, align 8, !tbaa !90
  %28 = getelementptr inbounds nuw i8, ptr %18, i64 24
  %29 = load i64, ptr %28, align 8, !tbaa !65
  %30 = tail call noundef i64 @_ZN5arrow8internal12CountSetBitsEPKhll(ptr noundef nonnull %24, i64 noundef %29, i64 noundef %27)
  %31 = sub nsw i64 %27, %30
  br label %32

32:                                               ; preds = %25, %22
  %.1.i3 = phi i64 [ %31, %25 ], [ 0, %22 ]
  store i64 %.1.i3, ptr %19, align 8, !tbaa !57
  br label %_ZNK5arrow9ArraySpan12GetNullCountEv.exit4

_ZNK5arrow9ArraySpan12GetNullCountEv.exit4:       ; preds = %16, %32
  %.0.i1 = phi i64 [ %.1.i3, %32 ], [ %20, %16 ]
  %33 = icmp ne i64 %.0.i1, 0
  br label %34

34:                                               ; preds = %_ZNK5arrow9ArraySpan12GetNullCountEv.exit4, %_ZNK5arrow9ArraySpan12GetNullCountEv.exit
  %35 = phi i1 [ true, %_ZNK5arrow9ArraySpan12GetNullCountEv.exit ], [ %33, %_ZNK5arrow9ArraySpan12GetNullCountEv.exit4 ]
  ret i1 %35
}